target datalayout = "e-m:e-p270:32:32-p271:32:32-p272:64:64-i64:64-i128:128-f80:128-n8:16:32:64-S128"
target triple = "x86_64-unknown-linux-gnu"

%"class.QuantLib::Date" = type { i64 }
%"class.boost::detail::shared_count" = type { ptr }
%"class.boost::shared_ptr.54" = type { ptr, %"class.boost::detail::shared_count" }
%"class.boost::shared_ptr.55" = type { ptr, %"class.boost::detail::shared_count" }
%"class.QuantLib::NumericHaganPricer::ConundrumIntegrand" = type { %"class.QuantLib::NumericHaganPricer::Function", %"class.boost::shared_ptr.55", double, double, %"class.QuantLib::Date", %"class.QuantLib::Date", double, i32, %"class.boost::shared_ptr.54" }
%"class.QuantLib::NumericHaganPricer::Function" = type { ptr }

; Function Attrs: mustprogress nounwind uwtable
define linkonce_odr void @_ZN5boost6detail12shared_countC2EOS1_(ptr noundef nonnull align 8 dereferenceable(8) %this, ptr noundef nonnull align 8 dereferenceable(8) %r) unnamed_addr #1 comdat align 2 {
entry:
  %this.addr = alloca ptr, align 8
  %r.addr = alloca ptr, align 8
  store ptr %this, ptr %this.addr, align 8, !tbaa !3
  store ptr %r, ptr %r.addr, align 8, !tbaa !3
  %this1 = load ptr, ptr %this.addr, align 8
  %pi_ = getelementptr inbounds nuw %"class.boost::detail::shared_count", ptr %this1, i32 0, i32 0
  %0 = load ptr, ptr %r.addr, align 8, !tbaa !3
  %pi_2 = getelementptr inbounds nuw %"class.boost::detail::shared_count", ptr %0, i32 0, i32 0
  %1 = load ptr, ptr %pi_2, align 8, !tbaa !204
  store ptr %1, ptr %pi_, align 8, !tbaa !204
  %2 = load ptr, ptr %r.addr, align 8, !tbaa !3
  %pi_3 = getelementptr inbounds nuw %"class.boost::detail::shared_count", ptr %2, i32 0, i32 0
  store ptr null, ptr %pi_3, align 8, !tbaa !204
  ret void
}

; Function Attrs: mustprogress nounwind uwtable
define linkonce_odr void @_ZN5boost10shared_ptrIN8QuantLib9GFunctionEEC2EOS3_(ptr noundef nonnull align 8 dereferenceable(16) %this, ptr noundef nonnull align 8 dereferenceable(16) %r) unnamed_addr #1 comdat align 2 {
entry:
  %this.addr = alloca ptr, align 8
  %r.addr = alloca ptr, align 8
  store ptr %this, ptr %this.addr, align 8, !tbaa !3
  store ptr %r, ptr %r.addr, align 8, !tbaa !3
  %this1 = load ptr, ptr %this.addr, align 8
  %px = getelementptr inbounds nuw %"class.boost::shared_ptr.54", ptr %this1, i32 0, i32 0
  %0 = load ptr, ptr %r.addr, align 8, !tbaa !3
  %px2 = getelementptr inbounds nuw %"class.boost::shared_ptr.54", ptr %0, i32 0, i32 0
  %1 = load ptr, ptr %px2, align 8, !tbaa !59
  store ptr %1, ptr %px, align 8, !tbaa !59
  %pn = getelementptr inbounds nuw %"class.boost::shared_ptr.54", ptr %this1, i32 0, i32 1
  %2 = load ptr, ptr %r.addr, align 8, !tbaa !3
  %pn3 = getelementptr inbounds nuw %"class.boost::shared_ptr.54", ptr %2, i32 0, i32 1
  call void @_ZN5boost6detail12shared_countC2EOS1_(ptr noundef nonnull align 8 dereferenceable(8) %pn, ptr noundef nonnull align 8 dereferenceable(8) %pn3) #18
  %3 = load ptr, ptr %r.addr, align 8, !tbaa !3
  %px4 = getelementptr inbounds nuw %"class.boost::shared_ptr.54", ptr %3, i32 0, i32 0
  store ptr null, ptr %px4, align 8, !tbaa !59
  ret void
}

; Function Attrs: mustprogress nounwind uwtable
define linkonce_odr void @_ZN5boost10shared_ptrIN8QuantLib19VanillaOptionPricerEEC2EOS3_(ptr noundef nonnull align 8 dereferenceable(16) %this, ptr noundef nonnull align 8 dereferenceable(16) %r) unnamed_addr #1 comdat align 2 {
entry:
  %this.addr = alloca ptr, align 8
  %r.addr = alloca ptr, align 8
  store ptr %this, ptr %this.addr, align 8, !tbaa !3
  store ptr %r, ptr %r.addr, align 8, !tbaa !3
  %this1 = load ptr, ptr %this.addr, align 8
  %px = getelementptr inbounds nuw %"class.boost::shared_ptr.55", ptr %this1, i32 0, i32 0
  %0 = load ptr, ptr %r.addr, align 8, !tbaa !3
  %px2 = getelementptr inbounds nuw %"class.boost::shared_ptr.55", ptr %0, i32 0, i32 0
  %1 = load ptr, ptr %px2, align 8, !tbaa !62
  store ptr %1, ptr %px, align 8, !tbaa !62
  %pn = getelementptr inbounds nuw %"class.boost::shared_ptr.55", ptr %this1, i32 0, i32 1
  %2 = load ptr, ptr %r.addr, align 8, !tbaa !3
  %pn3 = getelementptr inbounds nuw %"class.boost::shared_ptr.55", ptr %2, i32 0, i32 1
  call void @_ZN5boost6detail12shared_countC2EOS1_(ptr noundef nonnull align 8 dereferenceable(8) %pn, ptr noundef nonnull align 8 dereferenceable(8) %pn3) #18
  %3 = load ptr, ptr %r.addr, align 8, !tbaa !3
  %px4 = getelementptr inbounds nuw %"class.boost::shared_ptr.55", ptr %3, i32 0, i32 0
  store ptr null, ptr %px4, align 8, !tbaa !62
  ret void
}

; Function Attrs: inlinehint mustprogress nounwind uwtable
define linkonce_odr void @_ZN8QuantLib18NumericHaganPricer8FunctionC2Ev(ptr noundef nonnull align 8 dereferenceable(8) %this) unnamed_addr #5 comdat align 2 {
entry:
  %this.addr = alloca ptr, align 8
  store ptr %this, ptr %this.addr, align 8, !tbaa !3
  %this1 = load ptr, ptr %this.addr, align 8
  store ptr getelementptr inbounds inrange(-16, 24) ({ [5 x ptr] }, ptr @_ZTVN8QuantLib18NumericHaganPricer8FunctionE, i32 0, i32 0, i32 2), ptr %this1, align 8, !tbaa !12
  ret void
}

; Function Attrs: mustprogress nounwind uwtable
define void @_ZN8QuantLib18NumericHaganPricer18ConundrumIntegrandC2EN5boost10shared_ptrINS_19VanillaOptionPricerEEERKNS3_INS_18YieldTermStructureEEENS3_INS_9GFunctionEEENS_4DateESC_dddNS_6Option4TypeE(ptr noundef nonnull align 8 dereferenceable(88) %this, ptr noundef %o, ptr noundef nonnull align 8 dereferenceable(16) %0, ptr noundef %gFunction, i64 %fixingDate.coerce, i64 %paymentDate.coerce, double noundef %annuity, double noundef %forwardValue, double noundef %strike, i32 noundef %optionType) unnamed_addr #1 align 2 {
entry:
  %fixingDate = alloca %"class.QuantLib::Date", align 8
  %paymentDate = alloca %"class.QuantLib::Date", align 8
  %this.addr = alloca ptr, align 8
  %o.indirect_addr = alloca ptr, align 8
  %.addr = alloca ptr, align 8
  %gFunction.indirect_addr = alloca ptr, align 8
  %annuity.addr = alloca double, align 8
  %forwardValue.addr = alloca double, align 8
  %strike.addr = alloca double, align 8
  %optionType.addr = alloca i32, align 4
  %coerce.dive = getelementptr inbounds nuw %"class.QuantLib::Date", ptr %fixingDate, i32 0, i32 0
  store i64 %fixingDate.coerce, ptr %coerce.dive, align 8
  %coerce.dive1 = getelementptr inbounds nuw %"class.QuantLib::Date", ptr %paymentDate, i32 0, i32 0
  store i64 %paymentDate.coerce, ptr %coerce.dive1, align 8
  store ptr %this, ptr %this.addr, align 8, !tbaa !3
  store ptr %o, ptr %o.indirect_addr, align 8, !tbaa !3
  store ptr %0, ptr %.addr, align 8, !tbaa !3
  store ptr %gFunction, ptr %gFunction.indirect_addr, align 8, !tbaa !3
  store double %annuity, ptr %annuity.addr, align 8, !tbaa !18
  store double %forwardValue, ptr %forwardValue.addr, align 8, !tbaa !18
  store double %strike, ptr %strike.addr, align 8, !tbaa !18
  store i32 %optionType, ptr %optionType.addr, align 4, !tbaa !39
  %this2 = load ptr, ptr %this.addr, align 8
  call void @_ZN8QuantLib18NumericHaganPricer8FunctionC2Ev(ptr noundef nonnull align 8 dereferenceable(8) %this2) #18
  store ptr getelementptr inbounds inrange(-16, 24) ({ [5 x ptr] }, ptr @_ZTVN8QuantLib18NumericHaganPricer18ConundrumIntegrandE, i32 0, i32 0, i32 2), ptr %this2, align 8, !tbaa !12
  %vanillaOptionPricer_ = getelementptr inbounds nuw %"class.QuantLib::NumericHaganPricer::ConundrumIntegrand", ptr %this2, i32 0, i32 1
  call void @_ZN5boost10shared_ptrIN8QuantLib19VanillaOptionPricerEEC2EOS3_(ptr noundef nonnull align 8 dereferenceable(16) %vanillaOptionPricer_, ptr noundef nonnull align 8 dereferenceable(16) %o) #18
  %forwardValue_ = getelementptr inbounds nuw %"class.QuantLib::NumericHaganPricer::ConundrumIntegrand", ptr %this2, i32 0, i32 2
  %1 = load double, ptr %forwardValue.addr, align 8, !tbaa !18
  store double %1, ptr %forwardValue_, align 8, !tbaa !109
  %annuity_ = getelementptr inbounds nuw %"class.QuantLib::NumericHaganPricer::ConundrumIntegrand", ptr %this2, i32 0, i32 3
  %2 = load double, ptr %annuity.addr, align 8, !tbaa !18
  store double %2, ptr %annuity_, align 8, !tbaa !114
  %fixingDate_ = getelementptr inbounds nuw %"class.QuantLib::NumericHaganPricer::ConundrumIntegrand", ptr %this2, i32 0, i32 4
  call void @llvm.memcpy.p0.p0.i64(ptr align 8 %fixingDate_, ptr align 8 %fixingDate, i64 8, i1 false), !tbaa.struct !29
  %paymentDate_ = getelementptr inbounds nuw %"class.QuantLib::NumericHaganPricer::ConundrumIntegrand", ptr %this2, i32 0, i32 5
  call void @llvm.memcpy.p0.p0.i64(ptr align 8 %paymentDate_, ptr align 8 %paymentDate, i64 8, i1 false), !tbaa.struct !29
  %strike_ = getelementptr inbounds nuw %"class.QuantLib::NumericHaganPricer::ConundrumIntegrand", ptr %this2, i32 0, i32 6
  %3 = load double, ptr %strike.addr, align 8, !tbaa !18
  store double %3, ptr %strike_, align 8, !tbaa !112
  %optionType_ = getelementptr inbounds nuw %"class.QuantLib::NumericHaganPricer::ConundrumIntegrand", ptr %this2, i32 0, i32 7
  %4 = load i32, ptr %optionType.addr, align 4, !tbaa !39
  store i32 %4, ptr %optionType_, align 8, !tbaa !115
  %gFunction_ = getelementptr inbounds nuw %"class.QuantLib::NumericHaganPricer::ConundrumIntegrand", ptr %this2, i32 0, i32 8
  call void @_ZN5boost10shared_ptrIN8QuantLib9GFunctionEEC2EOS3_(ptr noundef nonnull align 8 dereferenceable(16) %gFunction_, ptr noundef nonnull align 8 dereferenceable(16) %gFunction) #18
  ret void
}