; Function Attrs: mustprogress nofree norecurse nosync nounwind willreturn memory(argmem: readwrite) uwtable
define void @_ZN8QuantLib18NumericHaganPricer18ConundrumIntegrandC2EN5boost10shared_ptrINS_19VanillaOptionPricerEEERKNS3_INS_18YieldTermStructureEEENS3_INS_9GFunctionEEENS_4DateESC_dddNS_6Option4TypeE(ptr nocapture noundef nonnull writeonly align 8 dereferenceable(88) %this, ptr nocapture noundef %o, ptr nocapture nonnull readnone align 8 %0, ptr nocapture noundef %gFunction, i64 %fixingDate.coerce, i64 %paymentDate.coerce, double noundef %annuity, double noundef %forwardValue, double noundef %strike, i32 noundef %optionType) unnamed_addr #17 align 2 {
entry:
  store ptr getelementptr inbounds inrange(-16, 24) (i8, ptr @_ZTVN8QuantLib18NumericHaganPricer18ConundrumIntegrandE, i64 16), ptr %this, align 8, !tbaa !35
  %vanillaOptionPricer_ = getelementptr inbounds nuw i8, ptr %this, i64 8
  %1 = load ptr, ptr %o, align 8, !tbaa !128
  store ptr %1, ptr %vanillaOptionPricer_, align 8, !tbaa !128
  %pn.i = getelementptr inbounds nuw i8, ptr %this, i64 16
  %pn3.i = getelementptr inbounds nuw i8, ptr %o, i64 8
  %2 = load ptr, ptr %pn3.i, align 8, !tbaa !37
  store ptr %2, ptr %pn.i, align 8, !tbaa !37
  tail call void @llvm.memset.p0.i64(ptr noundef nonnull align 8 dereferenceable(16) %o, i8 0, i64 16, i1 false)
  %forwardValue_ = getelementptr inbounds nuw i8, ptr %this, i64 24
  store double %forwardValue, ptr %forwardValue_, align 8, !tbaa !189
  %annuity_ = getelementptr inbounds nuw i8, ptr %this, i64 32
  store double %annuity, ptr %annuity_, align 8, !tbaa !195
  %fixingDate_ = getelementptr inbounds nuw i8, ptr %this, i64 40
  store i64 %fixingDate.coerce, ptr %fixingDate_, align 8, !tbaa !30
  %paymentDate_ = getelementptr inbounds nuw i8, ptr %this, i64 48
  store i64 %paymentDate.coerce, ptr %paymentDate_, align 8, !tbaa !30
  %strike_ = getelementptr inbounds nuw i8, ptr %this, i64 56
  store double %strike, ptr %strike_, align 8, !tbaa !193
  %optionType_ = getelementptr inbounds nuw i8, ptr %this, i64 64
  store i32 %optionType, ptr %optionType_, align 8, !tbaa !196
  %gFunction_ = getelementptr inbounds nuw i8, ptr %this, i64 72
  %3 = load ptr, ptr %gFunction, align 8, !tbaa !117
  store ptr %3, ptr %gFunction_, align 8, !tbaa !117
  %pn.i1 = getelementptr inbounds nuw i8, ptr %this, i64 80
  %pn3.i2 = getelementptr inbounds nuw i8, ptr %gFunction, i64 8
  %4 = load ptr, ptr %pn3.i2, align 8, !tbaa !37
  store ptr %4, ptr %pn.i1, align 8, !tbaa !37
  tail call void @llvm.memset.p0.i64(ptr noundef nonnull align 8 dereferenceable(16) %gFunction, i8 0, i64 16, i1 false)
  ret void
}